target datalayout = "e-m:e-p270:32:32-p271:32:32-p272:64:64-i64:64-i128:128-f80:128-n8:16:32:64-S128"
target triple = "x86_64-pc-linux-gnu"

%"struct.faiss::ClusteringParameters" = type { i32, i32, i8, i8, i8, i8, i8, i32, i32, i32, i64 }
%"struct.faiss::IndexBinary" = type { ptr, i32, i32, i64, i8, i8, i32 }
%"struct.faiss::IndexBinaryIVF" = type { %"struct.faiss::IndexBinary", ptr, i8, i64, i64, i8, i8, %"struct.faiss::DirectMap", ptr, i64, i8, %"struct.faiss::ClusteringParameters", ptr }
%"struct.faiss::DirectMap" = type { i32, %"class.std::vector", %"class.std::unordered_map" }
%"class.std::vector" = type { %"struct.std::_Vector_base" }
%"struct.std::_Vector_base" = type { %"struct.std::_Vector_base<long, std::allocator<long>>::_Vector_impl" }
%"struct.std::_Vector_base<long, std::allocator<long>>::_Vector_impl" = type { %"struct.std::_Vector_base<long, std::allocator<long>>::_Vector_impl_data" }
%"struct.std::_Vector_base<long, std::allocator<long>>::_Vector_impl_data" = type { ptr, ptr, ptr }
%"class.std::unordered_map" = type { %"class.std::_Hashtable" }
%"class.std::_Hashtable" = type { ptr, i64, %"struct.std::__detail::_Hash_node_base", i64, %"struct.std::__detail::_Prime_rehash_policy", ptr }
%"struct.std::__detail::_Hash_node_base" = type { ptr }
%"struct.std::__detail::_Prime_rehash_policy" = type { float, i64 }
%"class.std::__cxx11::basic_string" = type { %"struct.std::__cxx11::basic_string<char>::_Alloc_hider", i64, %union.anon }
%"struct.std::__cxx11::basic_string<char>::_Alloc_hider" = type { ptr }
%union.anon = type { i64, [8 x i8] }

@.str = private unnamed_addr constant [19 x i8] c"Error: '%s' failed\00", align 1
@.str.2 = private unnamed_addr constant [114 x i8] c"generated/home/dtcxzyw/WorkSpace/Projects/compilers/llvm-opt-benchmark/bench/faiss/faiss/faiss/IndexBinaryIVF.cpp\00", align 1
@_ZTIN5faiss14FaissExceptionE = external constant ptr
@.str.9 = private unnamed_addr constant [42 x i8] c"ni == 0 || (i0 >= 0 && i0 + ni <= ntotal)\00", align 1
@__PRETTY_FUNCTION__._ZNK5faiss14IndexBinaryIVF13reconstruct_nEllPh = private unnamed_addr constant [81 x i8] c"virtual void faiss::IndexBinaryIVF::reconstruct_n(idx_t, idx_t, uint8_t *) const\00", align 1

; Function Attrs: mustprogress uwtable
define void @_ZNK5faiss14IndexBinaryIVF13reconstruct_nEllPh(ptr noundef nonnull align 8 dereferenceable(232) %0, i64 noundef %1, i64 noundef %2, ptr noundef %3) unnamed_addr #1 align 2 personality ptr @__gxx_personality_v0 {
  %5 = alloca ptr, align 8
  %6 = alloca i64, align 8
  %7 = alloca i64, align 8
  %8 = alloca ptr, align 8
  %9 = alloca %"class.std::__cxx11::basic_string", align 8
  %10 = alloca i32, align 4
  %11 = alloca ptr, align 8
  %12 = alloca i32, align 4
  %13 = alloca i64, align 8
  %14 = alloca i64, align 8
  %15 = alloca ptr, align 8
  %16 = alloca i64, align 8
  %17 = alloca i64, align 8
  %18 = alloca ptr, align 8
  store ptr %0, ptr %5, align 8
  store i64 %1, ptr %6, align 8
  store i64 %2, ptr %7, align 8
  store ptr %3, ptr %8, align 8
  %19 = load ptr, ptr %5, align 8
  br label %20

20:                                               ; preds = %4
  %21 = load i64, ptr %7, align 8
  %22 = icmp eq i64 %21, 0
  br i1 %22, label %56, label %23

23:                                               ; preds = %20
  %24 = load i64, ptr %6, align 8
  %25 = icmp sge i64 %24, 0
  br i1 %25, label %26, label %33

26:                                               ; preds = %23
  %27 = load i64, ptr %6, align 8
  %28 = load i64, ptr %7, align 8
  %29 = add nsw i64 %27, %28
  %30 = getelementptr inbounds %"struct.faiss::IndexBinary", ptr %19, i32 0, i32 3
  %31 = load i64, ptr %30, align 8
  %32 = icmp sle i64 %29, %31
  br i1 %32, label %56, label %33

33:                                               ; preds = %26, %23
  br label %34

34:                                               ; preds = %33
  call void @_ZNSt7__cxx1112basic_stringIcSt11char_traitsIcESaIcEEC1Ev(ptr noundef nonnull align 8 dereferenceable(32) %9) #14
  %35 = call i32 (ptr, i64, ptr, ...) @snprintf(ptr noundef null, i64 noundef 0, ptr noundef @.str, ptr noundef @.str.9) #14
  store i32 %35, ptr %10, align 4
  %36 = load i32, ptr %10, align 4
  %37 = add nsw i32 %36, 1
  %38 = sext i32 %37 to i64
  invoke void @_ZNSt7__cxx1112basic_stringIcSt11char_traitsIcESaIcEE6resizeEm(ptr noundef nonnull align 8 dereferenceable(32) %9, i64 noundef %38)
          to label %39 unwind label %46

39:                                               ; preds = %34
  %40 = invoke noundef nonnull align 1 dereferenceable(1) ptr @_ZNSt7__cxx1112basic_stringIcSt11char_traitsIcESaIcEEixEm(ptr noundef nonnull align 8 dereferenceable(32) %9, i64 noundef 0)
          to label %41 unwind label %46

41:                                               ; preds = %39
  %42 = call noundef i64 @_ZNKSt7__cxx1112basic_stringIcSt11char_traitsIcESaIcEE4sizeEv(ptr noundef nonnull align 8 dereferenceable(32) %9) #14
  %43 = call i32 (ptr, i64, ptr, ...) @snprintf(ptr noundef %40, i64 noundef %42, ptr noundef @.str, ptr noundef @.str.9) #14
  %44 = call ptr @__cxa_allocate_exception(i64 40) #14
  invoke void @_ZN5faiss14FaissExceptionC1ERKNSt7__cxx1112basic_stringIcSt11char_traitsIcESaIcEEEPKcSA_i(ptr noundef nonnull align 8 dereferenceable(40) %44, ptr noundef nonnull align 8 dereferenceable(32) %9, ptr noundef @__PRETTY_FUNCTION__._ZNK5faiss14IndexBinaryIVF13reconstruct_nEllPh, ptr noundef @.str.2, i32 noundef 144)
          to label %45 unwind label %50

45:                                               ; preds = %41
  invoke void @__cxa_throw(ptr %44, ptr @_ZTIN5faiss14FaissExceptionE, ptr @_ZN5faiss14FaissExceptionD2Ev) #19
          to label %126 unwind label %46

46:                                               ; preds = %45, %39, %34
  %47 = landingpad { ptr, i32 }
          cleanup
  %48 = extractvalue { ptr, i32 } %47, 0
  store ptr %48, ptr %11, align 8
  %49 = extractvalue { ptr, i32 } %47, 1
  store i32 %49, ptr %12, align 4
  br label %54

50:                                               ; preds = %41
  %51 = landingpad { ptr, i32 }
          cleanup
  %52 = extractvalue { ptr, i32 } %51, 0
  store ptr %52, ptr %11, align 8
  %53 = extractvalue { ptr, i32 } %51, 1
  store i32 %53, ptr %12, align 4
  call void @__cxa_free_exception(ptr %44) #14
  br label %54

54:                                               ; preds = %50, %46
  call void @_ZNSt7__cxx1112basic_stringIcSt11char_traitsIcESaIcEED1Ev(ptr noundef nonnull align 8 dereferenceable(32) %9) #14
  br label %121

55:                                               ; No predecessors!
  br label %56

56:                                               ; preds = %55, %26, %20
  br label %57

57:                                               ; preds = %56
  store i64 0, ptr %13, align 8
  br label %58

58:                                               ; preds = %117, %57
  %59 = load i64, ptr %13, align 8
  %60 = getelementptr inbounds %"struct.faiss::IndexBinaryIVF", ptr %19, i32 0, i32 9
  %61 = load i64, ptr %60, align 8
  %62 = icmp ult i64 %59, %61
  br i1 %62, label %63, label %120

63:                                               ; preds = %58
  %64 = getelementptr inbounds %"struct.faiss::IndexBinaryIVF", ptr %19, i32 0, i32 1
  %65 = load ptr, ptr %64, align 8
  %66 = load i64, ptr %13, align 8
  %67 = load ptr, ptr %65, align 8
  %68 = getelementptr inbounds ptr, ptr %67, i64 2
  %69 = load ptr, ptr %68, align 8
  %70 = call noundef i64 %69(ptr noundef nonnull align 8 dereferenceable(25) %65, i64 noundef %66)
  store i64 %70, ptr %14, align 8
  %71 = getelementptr inbounds %"struct.faiss::IndexBinaryIVF", ptr %19, i32 0, i32 1
  %72 = load ptr, ptr %71, align 8
  %73 = load i64, ptr %13, align 8
  %74 = load ptr, ptr %72, align 8
  %75 = getelementptr inbounds ptr, ptr %74, i64 5
  %76 = load ptr, ptr %75, align 8
  %77 = call noundef ptr %76(ptr noundef nonnull align 8 dereferenceable(25) %72, i64 noundef %73)
  store ptr %77, ptr %15, align 8
  store i64 0, ptr %16, align 8
  br label %78

78:                                               ; preds = %113, %63
  %79 = load i64, ptr %16, align 8
  %80 = load i64, ptr %14, align 8
  %81 = icmp ult i64 %79, %80
  br i1 %81, label %82, label %116

82:                                               ; preds = %78
  %83 = load ptr, ptr %15, align 8
  %84 = load i64, ptr %16, align 8
  %85 = getelementptr inbounds i64, ptr %83, i64 %84
  %86 = load i64, ptr %85, align 8
  store i64 %86, ptr %17, align 8
  %87 = load i64, ptr %17, align 8
  %88 = load i64, ptr %6, align 8
  %89 = icmp sge i64 %87, %88
  br i1 %89, label %90, label %96

90:                                               ; preds = %82
  %91 = load i64, ptr %17, align 8
  %92 = load i64, ptr %6, align 8
  %93 = load i64, ptr %7, align 8
  %94 = add nsw i64 %92, %93
  %95 = icmp slt i64 %91, %94
  br i1 %95, label %97, label %96

96:                                               ; preds = %90, %82
  br label %113

97:                                               ; preds = %90
  %98 = load ptr, ptr %8, align 8
  %99 = load i64, ptr %17, align 8
  %100 = load i64, ptr %6, align 8
  %101 = sub nsw i64 %99, %100
  %102 = getelementptr inbounds %"struct.faiss::IndexBinary", ptr %19, i32 0, i32 1
  %103 = load i32, ptr %102, align 8
  %104 = sext i32 %103 to i64
  %105 = mul nsw i64 %101, %104
  %106 = getelementptr inbounds i8, ptr %98, i64 %105
  store ptr %106, ptr %18, align 8
  %107 = load i64, ptr %13, align 8
  %108 = load i64, ptr %16, align 8
  %109 = load ptr, ptr %18, align 8
  %110 = load ptr, ptr %19, align 8
  %111 = getelementptr inbounds ptr, ptr %110, i64 15
  %112 = load ptr, ptr %111, align 8
  call void %112(ptr noundef nonnull align 8 dereferenceable(232) %19, i64 noundef %107, i64 noundef %108, ptr noundef %109)
  br label %113

113:                                              ; preds = %97, %96
  %114 = load i64, ptr %16, align 8
  %115 = add nsw i64 %114, 1
  store i64 %115, ptr %16, align 8
  br label %78, !llvm.loop !5

116:                                              ; preds = %78
  br label %117

117:                                              ; preds = %116
  %118 = load i64, ptr %13, align 8
  %119 = add nsw i64 %118, 1
  store i64 %119, ptr %13, align 8
  br label %58, !llvm.loop !7

120:                                              ; preds = %58
  ret void

121:                                              ; preds = %54
  %122 = load ptr, ptr %11, align 8
  %123 = load i32, ptr %12, align 4
  %124 = insertvalue { ptr, i32 } poison, ptr %122, 0
  %125 = insertvalue { ptr, i32 } %124, i32 %123, 1
  resume { ptr, i32 } %125

126:                                              ; preds = %45
  unreachable
}