; Function Attrs: mustprogress uwtable
define void @_ZNK5faiss14IndexBinaryIVF13reconstruct_nEllPh(ptr noundef nonnull align 8 dereferenceable(232) %0, i64 noundef %1, i64 noundef %2, ptr noundef %3) unnamed_addr #1 align 2 personality ptr @__gxx_personality_v0 {
  %5 = alloca %"class.std::__cxx11::basic_string", align 8
  %6 = icmp eq i64 %2, 0
  br i1 %6, label %29, label %7

7:                                                ; preds = %4
  %8 = icmp sgt i64 %1, -1
  br i1 %8, label %9, label %13

9:                                                ; preds = %7
  %10 = add nsw i64 %2, %1
  %11 = getelementptr inbounds i8, ptr %0, i64 16
  %12 = load i64, ptr %11, align 8
  %.not = icmp sgt i64 %10, %12
  br i1 %.not, label %13, label %29

13:                                               ; preds = %7, %9
  call void @_ZNSt7__cxx1112basic_stringIcSt11char_traitsIcESaIcEEC1Ev(ptr noundef nonnull align 8 dereferenceable(32) %5) #20
  %14 = call i32 (ptr, i64, ptr, ...) @snprintf(ptr noundef null, i64 noundef 0, ptr noundef nonnull @.str, ptr noundef nonnull @.str.9) #20
  %15 = add nsw i32 %14, 1
  %16 = sext i32 %15 to i64
  invoke void @_ZNSt7__cxx1112basic_stringIcSt11char_traitsIcESaIcEE6resizeEm(ptr noundef nonnull align 8 dereferenceable(32) %5, i64 noundef %16)
          to label %17 unwind label %24

17:                                               ; preds = %13
  %18 = invoke noundef nonnull align 1 dereferenceable(1) ptr @_ZNSt7__cxx1112basic_stringIcSt11char_traitsIcESaIcEEixEm(ptr noundef nonnull align 8 dereferenceable(32) %5, i64 noundef 0)
          to label %19 unwind label %24

19:                                               ; preds = %17
  %20 = call noundef i64 @_ZNKSt7__cxx1112basic_stringIcSt11char_traitsIcESaIcEE4sizeEv(ptr noundef nonnull align 8 dereferenceable(32) %5) #20
  %21 = call i32 (ptr, i64, ptr, ...) @snprintf(ptr noundef nonnull %18, i64 noundef %20, ptr noundef nonnull @.str, ptr noundef nonnull @.str.9) #20
  %22 = call ptr @__cxa_allocate_exception(i64 40) #20
  invoke void @_ZN5faiss14FaissExceptionC1ERKNSt7__cxx1112basic_stringIcSt11char_traitsIcESaIcEEEPKcSA_i(ptr noundef nonnull align 8 dereferenceable(40) %22, ptr noundef nonnull align 8 dereferenceable(32) %5, ptr noundef nonnull @__PRETTY_FUNCTION__._ZNK5faiss14IndexBinaryIVF13reconstruct_nEllPh, ptr noundef nonnull @.str.2, i32 noundef 144)
          to label %23 unwind label %26

23:                                               ; preds = %19
  invoke void @__cxa_throw(ptr nonnull %22, ptr nonnull @_ZTIN5faiss14FaissExceptionE, ptr nonnull @_ZN5faiss14FaissExceptionD2Ev) #29
          to label %63 unwind label %24

24:                                               ; preds = %23, %17, %13
  %25 = landingpad { ptr, i32 }
          cleanup
  br label %28

26:                                               ; preds = %19
  %27 = landingpad { ptr, i32 }
          cleanup
  call void @__cxa_free_exception(ptr %22) #20
  br label %28

28:                                               ; preds = %26, %24
  %.pn = phi { ptr, i32 } [ %25, %24 ], [ %27, %26 ]
  call void @_ZNSt7__cxx1112basic_stringIcSt11char_traitsIcESaIcEED1Ev(ptr noundef nonnull align 8 dereferenceable(32) %5) #20
  resume { ptr, i32 } %.pn

29:                                               ; preds = %4, %9
  %30 = getelementptr inbounds i8, ptr %0, i64 168
  %31 = load i64, ptr %30, align 8
  %.not41 = icmp eq i64 %31, 0
  br i1 %.not41, label %._crit_edge40, label %.lr.ph39

.lr.ph39:                                         ; preds = %29
  %32 = getelementptr inbounds i8, ptr %0, i64 32
  %33 = add nsw i64 %2, %1
  %34 = getelementptr inbounds i8, ptr %0, i64 8
  br label %35

35:                                               ; preds = %.lr.ph39, %._crit_edge
  %.02937 = phi i64 [ 0, %.lr.ph39 ], [ %60, %._crit_edge ]
  %36 = load ptr, ptr %32, align 8
  %37 = load ptr, ptr %36, align 8
  %38 = getelementptr inbounds i8, ptr %37, i64 16
  %39 = load ptr, ptr %38, align 8
  %40 = tail call noundef i64 %39(ptr noundef nonnull align 8 dereferenceable(25) %36, i64 noundef %.02937)
  %41 = load ptr, ptr %32, align 8
  %42 = load ptr, ptr %41, align 8
  %43 = getelementptr inbounds i8, ptr %42, i64 40
  %44 = load ptr, ptr %43, align 8
  %45 = tail call noundef ptr %44(ptr noundef nonnull align 8 dereferenceable(25) %41, i64 noundef %.02937)
  %.not42 = icmp eq i64 %40, 0
  br i1 %.not42, label %._crit_edge, label %.lr.ph

.lr.ph:                                           ; preds = %35, %58
  %.02836 = phi i64 [ %59, %58 ], [ 0, %35 ]
  %46 = getelementptr inbounds i64, ptr %45, i64 %.02836
  %47 = load i64, ptr %46, align 8
  %.not34 = icmp sge i64 %47, %1
  %48 = icmp slt i64 %47, %33
  %or.cond = select i1 %.not34, i1 %48, i1 false
  br i1 %or.cond, label %49, label %58

49:                                               ; preds = %.lr.ph
  %50 = sub nsw i64 %47, %1
  %51 = load i32, ptr %34, align 8
  %52 = sext i32 %51 to i64
  %53 = mul nsw i64 %50, %52
  %54 = getelementptr inbounds i8, ptr %3, i64 %53
  %55 = load ptr, ptr %0, align 8
  %56 = getelementptr inbounds i8, ptr %55, i64 120
  %57 = load ptr, ptr %56, align 8
  tail call void %57(ptr noundef nonnull align 8 dereferenceable(232) %0, i64 noundef %.02937, i64 noundef %.02836, ptr noundef %54)
  br label %58

58:                                               ; preds = %.lr.ph, %49
  %59 = add nuw i64 %.02836, 1
  %exitcond.not = icmp eq i64 %59, %40
  br i1 %exitcond.not, label %._crit_edge, label %.lr.ph, !llvm.loop !5

._crit_edge:                                      ; preds = %58, %35
  %60 = add nuw nsw i64 %.02937, 1
  %61 = load i64, ptr %30, align 8
  %62 = icmp ult i64 %60, %61
  br i1 %62, label %35, label %._crit_edge40, !llvm.loop !7

._crit_edge40:                                    ; preds = %._crit_edge, %29
  ret void

63:                                               ; preds = %23
  unreachable
}